(dp0
S'8908223631'
p1
(lp2
S'rachel'
p3
aI9000
aI9000
asS'8906143632'
p4
(lp5
S'alex3714'
p6
aI15000
aI15000
as.(dp0
S'8908223631'
p1
(lp2
S'dsafewq'
p3
aI9000
aI9000
asS'8906143632'
p4
(lp5
S'alex3714'
p6
aI15000
aI15000
as.